; Function Attrs: nounwind uwtable
define dso_local void @defragHash(ptr noundef readonly captures(none) %0, ptr noundef %1) local_unnamed_addr #0 {
  %3 = alloca %struct.dictDefragFunctions, align 8
  %4 = tail call ptr @dictGetVal(ptr noundef %1) #10
  %5 = load i32, ptr %4, align 8
  %6 = and i32 %5, 255
  %7 = icmp eq i32 %6, 36
  br i1 %7, label %9, label %8, !prof !58

8:                                                ; preds = %2
  tail call void @_serverAssert(ptr noundef nonnull @.str.10, ptr noundef nonnull @.str, i32 noundef 542) #10
  tail call void @abort() #11
  unreachable

9:                                                ; preds = %2
  %10 = getelementptr inbounds nuw i8, ptr %4, i64 8
  %11 = load ptr, ptr %10, align 8, !tbaa !41
  %12 = getelementptr inbounds nuw i8, ptr %11, i64 24
  %13 = load i64, ptr %12, align 8, !tbaa !94
  %14 = getelementptr inbounds nuw i8, ptr %11, i64 32
  %15 = load i64, ptr %14, align 8, !tbaa !94
  %16 = add i64 %15, %13
  %17 = load i64, ptr getelementptr inbounds nuw (i8, ptr @server, i64 6360), align 8, !tbaa !100
  %18 = icmp ugt i64 %16, %17
  br i1 %18, label %19, label %25

19:                                               ; preds = %9
  %20 = tail call ptr @dictGetKey(ptr noundef %1) #10
  %21 = tail call ptr @sdsdup(ptr noundef %20) #10
  %22 = getelementptr inbounds nuw i8, ptr %0, i64 80
  %23 = load ptr, ptr %22, align 8, !tbaa !90
  %24 = tail call ptr @listAddNodeTail(ptr noundef %23, ptr noundef %21) #10
  br label %28

25:                                               ; preds = %9
  call void @llvm.lifetime.start.p0(i64 24, ptr nonnull %3) #10
  call void @llvm.memcpy.p0.p0.i64(ptr noundef nonnull align 8 dereferenceable(24) %3, ptr noundef nonnull align 8 dereferenceable(24) @__const.scanLaterHash.defragfns, i64 24, i1 false)
  br label %26

26:                                               ; preds = %26, %25
  %.0.i = phi i64 [ 0, %25 ], [ %27, %26 ]
  %27 = call i64 @dictScanDefrag(ptr noundef %11, i64 noundef %.0.i, ptr noundef nonnull @activeDefragHfieldDictCallback, ptr noundef nonnull %3, ptr noundef %11) #10
  %.not.i = icmp eq i64 %27, 0
  br i1 %.not.i, label %activeDefragHfieldDict.exit, label %26, !llvm.loop !73

activeDefragHfieldDict.exit:                      ; preds = %26
  call void @llvm.lifetime.end.p0(i64 24, ptr nonnull %3) #10
  br label %28

28:                                               ; preds = %activeDefragHfieldDict.exit, %19
  %29 = load ptr, ptr %10, align 8, !tbaa !41
  %30 = call ptr @dictDefragTables(ptr noundef %29)
  %.not = icmp eq ptr %30, null
  br i1 %.not, label %32, label %31

31:                                               ; preds = %28
  store ptr %30, ptr %10, align 8, !tbaa !41
  br label %32

32:                                               ; preds = %31, %28
  ret void
}